; Function Attrs: mustprogress nounwind uwtable
define dso_local void @_ZN5clang16CompilerInstance19createSourceManagerERNS_11FileManagerE(ptr noundef nonnull align 8 captures(none) dereferenceable(352) %0, ptr noundef nonnull align 8 dereferenceable(808) %1) local_unnamed_addr #0 align 2 {
  %3 = tail call noalias noundef nonnull dereferenceable(696) ptr @_Znwm(i64 noundef 696) #23
  %4 = getelementptr inbounds nuw i8, ptr %0, i64 32
  %5 = load ptr, ptr %4, align 8
  tail call void @_ZN5clang13SourceManagerC1ERNS_17DiagnosticsEngineERNS_11FileManagerEb(ptr noundef nonnull align 8 dereferenceable(696) %3, ptr noundef nonnull align 8 dereferenceable(1304) %5, ptr noundef nonnull align 8 dereferenceable(808) %1, i1 noundef zeroext false) #24
  %6 = load i32, ptr %3, align 4
  %7 = add i32 %6, 1
  store i32 %7, ptr %3, align 4
  %8 = getelementptr inbounds nuw i8, ptr %0, i64 64
  %9 = load ptr, ptr %8, align 8
  store ptr %3, ptr %8, align 8
  %.not.i.i = icmp eq ptr %9, null
  br i1 %.not.i.i, label %_ZN4llvm18IntrusiveRefCntPtrIN5clang13SourceManagerEED2Ev.exit, label %10

10:                                               ; preds = %2
  %11 = load i32, ptr %9, align 4
  %12 = add i32 %11, -1
  store i32 %12, ptr %9, align 4
  %.not.i.i.i.i = icmp eq i32 %12, 0
  br i1 %.not.i.i.i.i, label %13, label %_ZN4llvm18IntrusiveRefCntPtrIN5clang13SourceManagerEED2Ev.exit

13:                                               ; preds = %10
  tail call void @_ZN5clang13SourceManagerD1Ev(ptr noundef nonnull align 8 dereferenceable(696) %9) #24
  tail call void @_ZdlPvm(ptr noundef nonnull align 4 dereferenceable(4) %9, i64 noundef 696) #25
  br label %_ZN4llvm18IntrusiveRefCntPtrIN5clang13SourceManagerEED2Ev.exit

_ZN4llvm18IntrusiveRefCntPtrIN5clang13SourceManagerEED2Ev.exit: ; preds = %2, %10, %13
  ret void
}